; Function Attrs: mustprogress nofree norecurse nosync nounwind willreturn memory(read, inaccessiblemem: none) uwtable
define dso_local i64 @hdr_min(ptr nocapture noundef readonly %h) local_unnamed_addr #13 {
entry:
  %normalizing_index_offset.i.i.i = getelementptr inbounds i8, ptr %h, i64 64
  %0 = load i32, ptr %normalizing_index_offset.i.i.i, align 8
  %cmp.i.i.i = icmp eq i32 %0, 0
  br i1 %cmp.i.i.i, label %hdr_count_at_index.exit, label %if.end.i.i.i

if.end.i.i.i:                                     ; preds = %entry
  %sub.i.i.i = sub nsw i32 0, %0
  %cmp2.i.i.i = icmp sgt i32 %0, 0
  %counts_len.i.i.i = getelementptr inbounds i8, ptr %h, i64 80
  %1 = load i32, ptr %counts_len.i.i.i, align 8
  %cmp5.not.i.i.i = icmp sgt i32 %1, %sub.i.i.i
  %sub8.i.i.i = sub nsw i32 0, %1
  %spec.select.i.i.i = select i1 %cmp5.not.i.i.i, i32 0, i32 %sub8.i.i.i
  %adjustment.0.i.i.i = select i1 %cmp2.i.i.i, i32 %1, i32 %spec.select.i.i.i
  %add.i.i.i = sub i32 %adjustment.0.i.i.i, %0
  %2 = sext i32 %add.i.i.i to i64
  br label %hdr_count_at_index.exit

hdr_count_at_index.exit:                          ; preds = %entry, %if.end.i.i.i
  %retval.0.i.i.i = phi i64 [ %2, %if.end.i.i.i ], [ 0, %entry ]
  %3 = getelementptr i8, ptr %h, i64 96
  %h.val.i.i = load ptr, ptr %3, align 8
  %arrayidx.i.i.i = getelementptr inbounds i64, ptr %h.val.i.i, i64 %retval.0.i.i.i
  %4 = load i64, ptr %arrayidx.i.i.i, align 8
  %cmp = icmp sgt i64 %4, 0
  br i1 %cmp, label %return, label %if.end

if.end:                                           ; preds = %hdr_count_at_index.exit
  %min_value.i = getelementptr inbounds i8, ptr %h, i64 48
  %5 = load i64, ptr %min_value.i, align 8
  %cmp.i = icmp eq i64 %5, 9223372036854775807
  br i1 %cmp.i, label %return, label %if.end.i

if.end.i:                                         ; preds = %if.end
  %sub_bucket_mask.i.i.i = getelementptr inbounds i8, ptr %h, i64 32
  %6 = load i64, ptr %sub_bucket_mask.i.i.i, align 8
  %or.i.i.i = or i64 %6, %5
  %7 = tail call i64 @llvm.ctlz.i64(i64 %or.i.i.i, i1 true), !range !5
  %cast.i.i.i.i = trunc i64 %7 to i32
  %sub_bucket_half_count_magnitude.i.i.i = getelementptr inbounds i8, ptr %h, i64 24
  %8 = load i32, ptr %sub_bucket_half_count_magnitude.i.i.i, align 8
  %9 = add i32 %8, %cast.i.i.i.i
  %add.i.i.i2 = sub i32 63, %9
  %sh_prom.i.i.i = zext nneg i32 %add.i.i.i2 to i64
  %shr.i.i.i = ashr i64 %5, %sh_prom.i.i.i
  %sext.i.i = shl i64 %shr.i.i.i, 32
  %conv.i5.i.i = ashr exact i64 %sext.i.i, 32
  %shl.i.i.i = shl i64 %conv.i5.i.i, %sh_prom.i.i.i
  br label %return

return:                                           ; preds = %if.end.i, %if.end, %hdr_count_at_index.exit
  %retval.0 = phi i64 [ 0, %hdr_count_at_index.exit ], [ %shl.i.i.i, %if.end.i ], [ 9223372036854775807, %if.end ]
  ret i64 %retval.0
}